target datalayout = "e-m:e-p270:32:32-p271:32:32-p272:64:64-i64:64-i128:128-f80:128-n8:16:32:64-S128"
target triple = "x86_64-unknown-linux-gnu"

%"class.v8::IndirectHandleBase" = type { ptr }
%"class.node::MemoryRetainer" = type { ptr }
%"class.v8::Global.17" = type { %"class.v8::PersistentBase.18" }
%"class.v8::PersistentBase.18" = type { %"class.v8::IndirectHandleBase" }
%"class.node::(anonymous namespace)::Parser" = type { %"class.node::AsyncWrap", %"class.node::StreamListener", %struct.llhttp__internal_s, [32 x %"struct.node::(anonymous namespace)::StringPtr"], [32 x %"struct.node::(anonymous namespace)::StringPtr"], %"struct.node::(anonymous namespace)::StringPtr", %"struct.node::(anonymous namespace)::StringPtr", i64, i64, i8, i8, i64, ptr, i8, i8, i64, i64, i64, ptr, %"class.node::BaseObjectPtrImpl.328" }
%"class.node::AsyncWrap" = type { %"class.node::BaseObject", i32, i8, double, double }
%"class.node::BaseObject" = type { %"class.node::MemoryRetainer", %"class.v8::Global.17", ptr, ptr }
%"class.node::StreamListener" = type { ptr, ptr, ptr }
%struct.llhttp__internal_s = type { i32, ptr, ptr, i32, ptr, ptr, ptr, ptr, i64, i8, i8, i8, i8, i8, i16, i8, i8, i16, i16, i8, ptr }
%"struct.node::(anonymous namespace)::StringPtr" = type { ptr, i8, i64 }
%"class.node::BaseObjectPtrImpl.328" = type { %union.anon.329 }
%union.anon.329 = type { ptr }

; Function Attrs: mustprogress nounwind uwtable
define internal noundef ptr @_ZNK4node17BaseObjectPtrImplINS_12_GLOBAL__N_111BindingDataELb0EE15get_base_objectEv(ptr noundef nonnull align 8 dereferenceable(8) %this) #4 align 2 {
entry:
  %this.addr = alloca ptr, align 8
  store ptr %this, ptr %this.addr, align 8
  %this1 = load ptr, ptr %this.addr, align 8
  %data_ = getelementptr inbounds %"class.node::BaseObjectPtrImpl.328", ptr %this1, i32 0, i32 0
  %0 = load ptr, ptr %data_, align 8
  ret ptr %0
}

; Function Attrs: mustprogress nounwind uwtable
define internal void @_ZN4node12_GLOBAL__N_19StringPtr5ResetEv(ptr noundef nonnull align 8 dereferenceable(24) %this) #4 align 2 {
entry:
  %this.addr = alloca ptr, align 8
  store ptr %this, ptr %this.addr, align 8
  %this1 = load ptr, ptr %this.addr, align 8
  %on_heap_ = getelementptr inbounds %"struct.node::(anonymous namespace)::StringPtr", ptr %this1, i32 0, i32 1
  %0 = load i8, ptr %on_heap_, align 8
  %tobool = trunc i8 %0 to i1
  br i1 %tobool, label %if.then, label %if.end

if.then:                                          ; preds = %entry
  %str_ = getelementptr inbounds %"struct.node::(anonymous namespace)::StringPtr", ptr %this1, i32 0, i32 0
  %1 = load ptr, ptr %str_, align 8
  %isnull = icmp eq ptr %1, null
  br i1 %isnull, label %delete.end, label %delete.notnull

delete.notnull:                                   ; preds = %if.then
  call void @_ZdaPv(ptr noundef %1) #16
  br label %delete.end

delete.end:                                       ; preds = %delete.notnull, %if.then
  %on_heap_2 = getelementptr inbounds %"struct.node::(anonymous namespace)::StringPtr", ptr %this1, i32 0, i32 1
  store i8 0, ptr %on_heap_2, align 8
  br label %if.end

if.end:                                           ; preds = %delete.end, %entry
  %str_3 = getelementptr inbounds %"struct.node::(anonymous namespace)::StringPtr", ptr %this1, i32 0, i32 0
  store ptr null, ptr %str_3, align 8
  %size_ = getelementptr inbounds %"struct.node::(anonymous namespace)::StringPtr", ptr %this1, i32 0, i32 2
  store i64 0, ptr %size_, align 8
  ret void
}

; Function Attrs: mustprogress nounwind uwtable
define internal noundef ptr @_ZNK4node17BaseObjectPtrImplINS_12_GLOBAL__N_111BindingDataELb0EE3getEv(ptr noundef nonnull align 8 dereferenceable(8) %this) #4 align 2 {
entry:
  %this.addr = alloca ptr, align 8
  store ptr %this, ptr %this.addr, align 8
  %this1 = load ptr, ptr %this.addr, align 8
  %call = call noundef ptr @_ZNK4node17BaseObjectPtrImplINS_12_GLOBAL__N_111BindingDataELb0EE15get_base_objectEv(ptr noundef nonnull align 8 dereferenceable(8) %this1)
  ret ptr %call
}

; Function Attrs: mustprogress nounwind uwtable
define internal void @_ZN4node12_GLOBAL__N_19StringPtrD2Ev(ptr noundef nonnull align 8 dereferenceable(24) %this) unnamed_addr #4 align 2 {
entry:
  %this.addr = alloca ptr, align 8
  store ptr %this, ptr %this.addr, align 8
  %this1 = load ptr, ptr %this.addr, align 8
  call void @_ZN4node12_GLOBAL__N_19StringPtr5ResetEv(ptr noundef nonnull align 8 dereferenceable(24) %this1)
  ret void
}

; Function Attrs: mustprogress nounwind uwtable
define internal void @_ZN4node17BaseObjectPtrImplINS_12_GLOBAL__N_111BindingDataELb0EED2Ev(ptr noundef nonnull align 8 dereferenceable(8) %this) unnamed_addr #4 align 2 {
entry:
  %this.addr = alloca ptr, align 8
  store ptr %this, ptr %this.addr, align 8
  %this1 = load ptr, ptr %this.addr, align 8
  %call = call noundef ptr @_ZNK4node17BaseObjectPtrImplINS_12_GLOBAL__N_111BindingDataELb0EE3getEv(ptr noundef nonnull align 8 dereferenceable(8) %this1)
  %cmp = icmp ne ptr %call, null
  br i1 %cmp, label %if.then, label %if.end

if.then:                                          ; preds = %entry
  %call2 = call noundef ptr @_ZNK4node17BaseObjectPtrImplINS_12_GLOBAL__N_111BindingDataELb0EE3getEv(ptr noundef nonnull align 8 dereferenceable(8) %this1)
  call void @_ZN4node10BaseObject17decrease_refcountEv(ptr noundef nonnull align 8 dereferenceable(32) %call2)
  br label %if.end

if.end:                                           ; preds = %if.then, %entry
  ret void
}

; Function Attrs: mustprogress nounwind uwtable
define internal void @_ZN4node12_GLOBAL__N_16ParserD2Ev(ptr noundef nonnull align 8 dereferenceable(1848) %this) unnamed_addr #4 align 2 {
entry:
  %this.addr = alloca ptr, align 8
  store ptr %this, ptr %this.addr, align 8
  %this1 = load ptr, ptr %this.addr, align 8
  store ptr getelementptr inbounds ({ [22 x ptr], [10 x ptr] }, ptr @_ZTVN4node12_GLOBAL__N_16ParserE, i32 0, i32 0, i32 2), ptr %this1, align 8
  %add.ptr = getelementptr inbounds i8, ptr %this1, i64 56
  store ptr getelementptr inbounds ({ [22 x ptr], [10 x ptr] }, ptr @_ZTVN4node12_GLOBAL__N_16ParserE, i32 0, i32 1, i32 2), ptr %add.ptr, align 8
  %binding_data_ = getelementptr inbounds %"class.node::(anonymous namespace)::Parser", ptr %this1, i32 0, i32 19
  call void @_ZN4node17BaseObjectPtrImplINS_12_GLOBAL__N_111BindingDataELb0EED2Ev(ptr noundef nonnull align 8 dereferenceable(8) %binding_data_) #3
  %status_message_ = getelementptr inbounds %"class.node::(anonymous namespace)::Parser", ptr %this1, i32 0, i32 6
  call void @_ZN4node12_GLOBAL__N_19StringPtrD2Ev(ptr noundef nonnull align 8 dereferenceable(24) %status_message_) #3
  %url_ = getelementptr inbounds %"class.node::(anonymous namespace)::Parser", ptr %this1, i32 0, i32 5
  call void @_ZN4node12_GLOBAL__N_19StringPtrD2Ev(ptr noundef nonnull align 8 dereferenceable(24) %url_) #3
  %values_ = getelementptr inbounds %"class.node::(anonymous namespace)::Parser", ptr %this1, i32 0, i32 4
  %array.begin = getelementptr inbounds [32 x %"struct.node::(anonymous namespace)::StringPtr"], ptr %values_, i32 0, i32 0
  %0 = getelementptr inbounds %"struct.node::(anonymous namespace)::StringPtr", ptr %array.begin, i64 32
  br label %arraydestroy.body

arraydestroy.body:                                ; preds = %arraydestroy.body, %entry
  %arraydestroy.elementPast = phi ptr [ %0, %entry ], [ %arraydestroy.element, %arraydestroy.body ]
  %arraydestroy.element = getelementptr inbounds %"struct.node::(anonymous namespace)::StringPtr", ptr %arraydestroy.elementPast, i64 -1
  call void @_ZN4node12_GLOBAL__N_19StringPtrD2Ev(ptr noundef nonnull align 8 dereferenceable(24) %arraydestroy.element) #3
  %arraydestroy.done = icmp eq ptr %arraydestroy.element, %array.begin
  br i1 %arraydestroy.done, label %arraydestroy.done2, label %arraydestroy.body

arraydestroy.done2:                               ; preds = %arraydestroy.body
  %fields_ = getelementptr inbounds %"class.node::(anonymous namespace)::Parser", ptr %this1, i32 0, i32 3
  %array.begin3 = getelementptr inbounds [32 x %"struct.node::(anonymous namespace)::StringPtr"], ptr %fields_, i32 0, i32 0
  %1 = getelementptr inbounds %"struct.node::(anonymous namespace)::StringPtr", ptr %array.begin3, i64 32
  br label %arraydestroy.body4

arraydestroy.body4:                               ; preds = %arraydestroy.body4, %arraydestroy.done2
  %arraydestroy.elementPast5 = phi ptr [ %1, %arraydestroy.done2 ], [ %arraydestroy.element6, %arraydestroy.body4 ]
  %arraydestroy.element6 = getelementptr inbounds %"struct.node::(anonymous namespace)::StringPtr", ptr %arraydestroy.elementPast5, i64 -1
  call void @_ZN4node12_GLOBAL__N_19StringPtrD2Ev(ptr noundef nonnull align 8 dereferenceable(24) %arraydestroy.element6) #3
  %arraydestroy.done7 = icmp eq ptr %arraydestroy.element6, %array.begin3
  br i1 %arraydestroy.done7, label %arraydestroy.done8, label %arraydestroy.body4

arraydestroy.done8:                               ; preds = %arraydestroy.body4
  %2 = getelementptr inbounds i8, ptr %this1, i64 56
  call void @_ZN4node14StreamListenerD2Ev(ptr noundef nonnull align 8 dereferenceable(24) %2) #3
  call void @_ZN4node9AsyncWrapD2Ev(ptr noundef nonnull align 8 dereferenceable(56) %this1) #3
  ret void
}