; Function Attrs: mustprogress nounwind uwtable
define internal void @_ZN4node12_GLOBAL__N_16ParserD2Ev(ptr noundef nonnull align 8 dereferenceable(1848) %this) unnamed_addr #3 align 2 {
entry:
  store ptr getelementptr inbounds ({ [22 x ptr], [10 x ptr] }, ptr @_ZTVN4node12_GLOBAL__N_16ParserE, i64 0, i32 0, i64 2), ptr %this, align 8
  %add.ptr = getelementptr inbounds i8, ptr %this, i64 56
  store ptr getelementptr inbounds ({ [22 x ptr], [10 x ptr] }, ptr @_ZTVN4node12_GLOBAL__N_16ParserE, i64 0, i32 1, i64 2), ptr %add.ptr, align 8
  %binding_data_ = getelementptr inbounds i8, ptr %this, i64 1840
  %binding_data_.val = load ptr, ptr %binding_data_, align 8
  %cmp.not.i = icmp eq ptr %binding_data_.val, null
  br i1 %cmp.not.i, label %_ZN4node17BaseObjectPtrImplINS_12_GLOBAL__N_111BindingDataELb0EED2Ev.exit, label %if.then.i

if.then.i:                                        ; preds = %entry
  tail call void @_ZN4node10BaseObject17decrease_refcountEv(ptr noundef nonnull align 8 dereferenceable(32) %binding_data_.val) #20
  br label %_ZN4node17BaseObjectPtrImplINS_12_GLOBAL__N_111BindingDataELb0EED2Ev.exit

_ZN4node17BaseObjectPtrImplINS_12_GLOBAL__N_111BindingDataELb0EED2Ev.exit: ; preds = %entry, %if.then.i
  %status_message_ = getelementptr inbounds i8, ptr %this, i64 1736
  %on_heap_.i.i = getelementptr inbounds i8, ptr %this, i64 1744
  %0 = load i8, ptr %on_heap_.i.i, align 8
  %1 = and i8 %0, 1
  %tobool.not.i.i = icmp eq i8 %1, 0
  br i1 %tobool.not.i.i, label %_ZN4node12_GLOBAL__N_19StringPtrD2Ev.exit, label %if.then.i.i

if.then.i.i:                                      ; preds = %_ZN4node17BaseObjectPtrImplINS_12_GLOBAL__N_111BindingDataELb0EED2Ev.exit
  %2 = load ptr, ptr %status_message_, align 8
  %isnull.i.i = icmp eq ptr %2, null
  br i1 %isnull.i.i, label %delete.end.i.i, label %delete.notnull.i.i

delete.notnull.i.i:                               ; preds = %if.then.i.i
  tail call void @_ZdaPv(ptr noundef nonnull %2) #23
  br label %delete.end.i.i

delete.end.i.i:                                   ; preds = %delete.notnull.i.i, %if.then.i.i
  store i8 0, ptr %on_heap_.i.i, align 8
  br label %_ZN4node12_GLOBAL__N_19StringPtrD2Ev.exit

_ZN4node12_GLOBAL__N_19StringPtrD2Ev.exit:        ; preds = %_ZN4node17BaseObjectPtrImplINS_12_GLOBAL__N_111BindingDataELb0EED2Ev.exit, %delete.end.i.i
  store ptr null, ptr %status_message_, align 8
  %size_.i.i = getelementptr inbounds i8, ptr %this, i64 1752
  store i64 0, ptr %size_.i.i, align 8
  %url_ = getelementptr inbounds i8, ptr %this, i64 1712
  %on_heap_.i.i1 = getelementptr inbounds i8, ptr %this, i64 1720
  %3 = load i8, ptr %on_heap_.i.i1, align 8
  %4 = and i8 %3, 1
  %tobool.not.i.i2 = icmp eq i8 %4, 0
  br i1 %tobool.not.i.i2, label %_ZN4node12_GLOBAL__N_19StringPtrD2Ev.exit8, label %if.then.i.i3

if.then.i.i3:                                     ; preds = %_ZN4node12_GLOBAL__N_19StringPtrD2Ev.exit
  %5 = load ptr, ptr %url_, align 8
  %isnull.i.i4 = icmp eq ptr %5, null
  br i1 %isnull.i.i4, label %delete.end.i.i6, label %delete.notnull.i.i5

delete.notnull.i.i5:                              ; preds = %if.then.i.i3
  tail call void @_ZdaPv(ptr noundef nonnull %5) #23
  br label %delete.end.i.i6

delete.end.i.i6:                                  ; preds = %delete.notnull.i.i5, %if.then.i.i3
  store i8 0, ptr %on_heap_.i.i1, align 8
  br label %_ZN4node12_GLOBAL__N_19StringPtrD2Ev.exit8

_ZN4node12_GLOBAL__N_19StringPtrD2Ev.exit8:       ; preds = %_ZN4node12_GLOBAL__N_19StringPtrD2Ev.exit, %delete.end.i.i6
  store ptr null, ptr %url_, align 8
  %size_.i.i7 = getelementptr inbounds i8, ptr %this, i64 1728
  store i64 0, ptr %size_.i.i7, align 8
  br label %arraydestroy.body

arraydestroy.body:                                ; preds = %_ZN4node12_GLOBAL__N_19StringPtrD2Ev.exit16, %_ZN4node12_GLOBAL__N_19StringPtrD2Ev.exit8
  %arraydestroy.elementPast.idx = phi i64 [ 1712, %_ZN4node12_GLOBAL__N_19StringPtrD2Ev.exit8 ], [ %arraydestroy.elementPast.add, %_ZN4node12_GLOBAL__N_19StringPtrD2Ev.exit16 ]
  %arraydestroy.elementPast.add = add nsw i64 %arraydestroy.elementPast.idx, -24
  %arraydestroy.element.ptr = getelementptr inbounds i8, ptr %this, i64 %arraydestroy.elementPast.add
  %on_heap_.i.i9 = getelementptr inbounds i8, ptr %arraydestroy.element.ptr, i64 8
  %6 = load i8, ptr %on_heap_.i.i9, align 8
  %7 = and i8 %6, 1
  %tobool.not.i.i10 = icmp eq i8 %7, 0
  br i1 %tobool.not.i.i10, label %_ZN4node12_GLOBAL__N_19StringPtrD2Ev.exit16, label %if.then.i.i11

if.then.i.i11:                                    ; preds = %arraydestroy.body
  %8 = load ptr, ptr %arraydestroy.element.ptr, align 8
  %isnull.i.i12 = icmp eq ptr %8, null
  br i1 %isnull.i.i12, label %delete.end.i.i14, label %delete.notnull.i.i13

delete.notnull.i.i13:                             ; preds = %if.then.i.i11
  tail call void @_ZdaPv(ptr noundef nonnull %8) #23
  br label %delete.end.i.i14

delete.end.i.i14:                                 ; preds = %delete.notnull.i.i13, %if.then.i.i11
  store i8 0, ptr %on_heap_.i.i9, align 8
  br label %_ZN4node12_GLOBAL__N_19StringPtrD2Ev.exit16

_ZN4node12_GLOBAL__N_19StringPtrD2Ev.exit16:      ; preds = %arraydestroy.body, %delete.end.i.i14
  store ptr null, ptr %arraydestroy.element.ptr, align 8
  %size_.i.i15 = getelementptr inbounds i8, ptr %arraydestroy.element.ptr, i64 16
  store i64 0, ptr %size_.i.i15, align 8
  %arraydestroy.done = icmp eq i64 %arraydestroy.elementPast.add, 944
  br i1 %arraydestroy.done, label %arraydestroy.body4, label %arraydestroy.body

arraydestroy.body4:                               ; preds = %_ZN4node12_GLOBAL__N_19StringPtrD2Ev.exit16, %_ZN4node12_GLOBAL__N_19StringPtrD2Ev.exit24
  %arraydestroy.elementPast5.idx = phi i64 [ %arraydestroy.elementPast5.add, %_ZN4node12_GLOBAL__N_19StringPtrD2Ev.exit24 ], [ 944, %_ZN4node12_GLOBAL__N_19StringPtrD2Ev.exit16 ]
  %arraydestroy.elementPast5.add = add nsw i64 %arraydestroy.elementPast5.idx, -24
  %arraydestroy.element6.ptr = getelementptr inbounds i8, ptr %this, i64 %arraydestroy.elementPast5.add
  %on_heap_.i.i17 = getelementptr inbounds i8, ptr %arraydestroy.element6.ptr, i64 8
  %9 = load i8, ptr %on_heap_.i.i17, align 8
  %10 = and i8 %9, 1
  %tobool.not.i.i18 = icmp eq i8 %10, 0
  br i1 %tobool.not.i.i18, label %_ZN4node12_GLOBAL__N_19StringPtrD2Ev.exit24, label %if.then.i.i19

if.then.i.i19:                                    ; preds = %arraydestroy.body4
  %11 = load ptr, ptr %arraydestroy.element6.ptr, align 8
  %isnull.i.i20 = icmp eq ptr %11, null
  br i1 %isnull.i.i20, label %delete.end.i.i22, label %delete.notnull.i.i21

delete.notnull.i.i21:                             ; preds = %if.then.i.i19
  tail call void @_ZdaPv(ptr noundef nonnull %11) #23
  br label %delete.end.i.i22

delete.end.i.i22:                                 ; preds = %delete.notnull.i.i21, %if.then.i.i19
  store i8 0, ptr %on_heap_.i.i17, align 8
  br label %_ZN4node12_GLOBAL__N_19StringPtrD2Ev.exit24

_ZN4node12_GLOBAL__N_19StringPtrD2Ev.exit24:      ; preds = %arraydestroy.body4, %delete.end.i.i22
  store ptr null, ptr %arraydestroy.element6.ptr, align 8
  %size_.i.i23 = getelementptr inbounds i8, ptr %arraydestroy.element6.ptr, i64 16
  store i64 0, ptr %size_.i.i23, align 8
  %arraydestroy.done7 = icmp eq i64 %arraydestroy.elementPast5.add, 176
  br i1 %arraydestroy.done7, label %arraydestroy.done8, label %arraydestroy.body4

arraydestroy.done8:                               ; preds = %_ZN4node12_GLOBAL__N_19StringPtrD2Ev.exit24
  tail call void @_ZN4node14StreamListenerD2Ev(ptr noundef nonnull align 8 dereferenceable(24) %add.ptr) #20
  tail call void @_ZN4node9AsyncWrapD2Ev(ptr noundef nonnull align 8 dereferenceable(56) %this) #20
  ret void
}